; Function Attrs: nounwind uwtable
define dso_local noundef ptr @heap_tuple_from_minimal_tuple(ptr noundef readonly captures(none) %0) local_unnamed_addr #0 {
  %2 = load i32, ptr %0, align 4
  %3 = add i32 %2, 8
  %4 = zext i32 %3 to i64
  %5 = add nuw nsw i64 %4, 24
  %6 = tail call ptr @palloc(i64 noundef %5) #12
  store i32 %3, ptr %6, align 8
  %7 = getelementptr inbounds nuw i8, ptr %6, i64 4
  store i16 -1, ptr %7, align 2
  %8 = getelementptr inbounds nuw i8, ptr %6, i64 6
  store i16 -1, ptr %8, align 2
  %9 = getelementptr inbounds nuw i8, ptr %6, i64 8
  store i16 0, ptr %9, align 2
  %10 = getelementptr inbounds nuw i8, ptr %6, i64 12
  store i32 0, ptr %10, align 4
  %11 = getelementptr inbounds nuw i8, ptr %6, i64 24
  %12 = getelementptr inbounds nuw i8, ptr %6, i64 16
  store ptr %11, ptr %12, align 8
  %13 = getelementptr inbounds nuw i8, ptr %6, i64 32
  %14 = load i32, ptr %0, align 4
  %15 = zext i32 %14 to i64
  tail call void @llvm.memcpy.p0.p0.i64(ptr nonnull align 1 %13, ptr nonnull align 4 %0, i64 %15, i1 false)
  tail call void @llvm.memset.p0.i64(ptr noundef nonnull align 4 dereferenceable(18) %11, i8 0, i64 18, i1 false)
  ret ptr %6
}